; Function Attrs: mustprogress uwtable
define hidden void @_ZN15model_converter11display_addERSoR19smt2_pp_environmentR11ast_managerP9func_declP4expr(ptr noundef nonnull align 8 dereferenceable(8) %out, ptr noundef nonnull align 8 dereferenceable(56) %env, ptr nocapture nonnull readnone align 8 %m, ptr noundef %f, ptr noundef %e) local_unnamed_addr #3 align 2 personality ptr @__gxx_personality_v0 {
entry:
  %ref.tmp = alloca %class.params_ref, align 8
  %tobool.not = icmp eq ptr %e, null
  br i1 %tobool.not, label %return, label %if.end

if.end:                                           ; preds = %entry
  %m_range.i = getelementptr inbounds i8, ptr %f, i64 40
  %0 = load ptr, ptr %m_range.i, align 8
  %call1 = tail call noundef ptr @_ZNK4expr8get_sortEv(ptr noundef nonnull align 4 dereferenceable(16) %e)
  %cmp = icmp eq ptr %0, %call1
  br i1 %cmp, label %if.end3, label %if.then2

if.then2:                                         ; preds = %if.end
  tail call void @_Z26notify_assertion_violationPKciS0_(ptr noundef nonnull @.str, i32 noundef 29, ptr noundef nonnull @.str.1)
  tail call void @exit(i32 noundef 114) #15
  unreachable

if.end3:                                          ; preds = %if.end
  store ptr null, ptr %ref.tmp, align 8
  %call4 = invoke noundef nonnull align 8 dereferenceable(8) ptr @_Z15ast_smt2_pp_revRSoP9func_declP4exprR19smt2_pp_environmentRK10params_refjPKc(ptr noundef nonnull align 8 dereferenceable(8) %out, ptr noundef nonnull %f, ptr noundef nonnull %e, ptr noundef nonnull align 8 dereferenceable(56) %env, ptr noundef nonnull align 8 dereferenceable(8) %ref.tmp, i32 noundef 0, ptr noundef nonnull @.str.2)
          to label %invoke.cont unwind label %lpad

invoke.cont:                                      ; preds = %if.end3
  %call6 = invoke noundef nonnull align 8 dereferenceable(8) ptr @_ZStlsISt11char_traitsIcEERSt13basic_ostreamIcT_ES5_PKc(ptr noundef nonnull align 8 dereferenceable(8) %call4, ptr noundef nonnull @.str.3)
          to label %invoke.cont5 unwind label %lpad

invoke.cont5:                                     ; preds = %invoke.cont
  call void @_ZN10params_refD1Ev(ptr noundef nonnull align 8 dereferenceable(8) %ref.tmp) #16
  br label %return

return:                                           ; preds = %entry, %invoke.cont5
  ret void

lpad:                                             ; preds = %invoke.cont, %if.end3
  %1 = landingpad { ptr, i32 }
          cleanup
  call void @_ZN10params_refD1Ev(ptr noundef nonnull align 8 dereferenceable(8) %ref.tmp) #16
  resume { ptr, i32 } %1
}